target datalayout = "e-m:e-p270:32:32-p271:32:32-p272:64:64-i64:64-i128:128-f80:128-n8:16:32:64-S128"
target triple = "x86_64-pc-linux-gnu"

%struct.assoc_mgr_info_request_msg_t = type { ptr, i32, ptr, ptr }

@stderr = external global ptr, align 8
@.str = private unnamed_addr constant [30 x i8] c"No value given for option %s\0A\00", align 1
@.str.1 = private unnamed_addr constant [9 x i8] c"accounts\00", align 1
@.str.2 = private unnamed_addr constant [6 x i8] c"flags\00", align 1
@.str.3 = private unnamed_addr constant [6 x i8] c"users\00", align 1
@.str.4 = private unnamed_addr constant [6 x i8] c"assoc\00", align 1
@.str.5 = private unnamed_addr constant [4 x i8] c"qos\00", align 1
@.str.6 = private unnamed_addr constant [65 x i8] c"invalid flag '%s', valid options are 'Assoc, QOS, and/or Users'\0A\00", align 1
@exit_code = external global i32, align 4
@quiet_flag = external global i32, align 4
@.str.7 = private unnamed_addr constant [47 x i8] c"invalid entity: %s for keyword:show assoc_mgr\0A\00", align 1
@req_flags = internal global i32 0, align 4
@.str.8 = private unnamed_addr constant [32 x i8] c"slurm_load_assoc_mgr_info error\00", align 1

; Function Attrs: nounwind uwtable
define dso_local void @scontrol_print_assoc_mgr_info(i32 noundef %0, ptr noundef %1) #0 {
  %3 = alloca i32, align 4
  %4 = alloca ptr, align 8
  %5 = alloca ptr, align 8
  %6 = alloca ptr, align 8
  %7 = alloca i32, align 4
  %8 = alloca i32, align 4
  %9 = alloca i32, align 4
  %10 = alloca %struct.assoc_mgr_info_request_msg_t, align 8
  %11 = alloca ptr, align 8
  store i32 %0, ptr %3, align 4
  store ptr %1, ptr %4, align 8
  call void @llvm.lifetime.start.p0(i64 8, ptr %5) #7
  store ptr null, ptr %5, align 8
  call void @llvm.lifetime.start.p0(i64 8, ptr %6) #7
  store ptr null, ptr %6, align 8
  call void @llvm.lifetime.start.p0(i64 4, ptr %7) #7
  call void @llvm.lifetime.start.p0(i64 4, ptr %8) #7
  call void @llvm.lifetime.start.p0(i64 4, ptr %9) #7
  call void @llvm.lifetime.start.p0(i64 32, ptr %10) #7
  call void @llvm.lifetime.start.p0(i64 8, ptr %11) #7
  store ptr null, ptr %11, align 8
  call void @llvm.memset.p0.i64(ptr align 8 %10, i8 0, i64 32, i1 false)
  store i32 0, ptr %9, align 4
  br label %12

12:                                               ; preds = %188, %2
  %13 = load i32, ptr %9, align 4
  %14 = load i32, ptr %3, align 4
  %15 = icmp slt i32 %13, %14
  br i1 %15, label %16, label %191

16:                                               ; preds = %12
  %17 = load ptr, ptr %4, align 8
  %18 = load i32, ptr %9, align 4
  %19 = sext i32 %18 to i64
  %20 = getelementptr inbounds ptr, ptr %17, i64 %19
  %21 = load ptr, ptr %20, align 8
  store ptr %21, ptr %5, align 8
  %22 = load ptr, ptr %5, align 8
  %23 = call i64 @strlen(ptr noundef %22) #8
  %24 = trunc i64 %23 to i32
  store i32 %24, ptr %8, align 4
  %25 = load ptr, ptr %4, align 8
  %26 = load i32, ptr %9, align 4
  %27 = sext i32 %26 to i64
  %28 = getelementptr inbounds ptr, ptr %25, i64 %27
  %29 = load ptr, ptr %28, align 8
  %30 = call ptr @strchr(ptr noundef %29, i32 noundef 61) #8
  store ptr %30, ptr %6, align 8
  %31 = load ptr, ptr %6, align 8
  %32 = icmp ne ptr %31, null
  br i1 %32, label %33, label %46

33:                                               ; preds = %16
  %34 = load ptr, ptr %6, align 8
  %35 = load ptr, ptr %4, align 8
  %36 = load i32, ptr %9, align 4
  %37 = sext i32 %36 to i64
  %38 = getelementptr inbounds ptr, ptr %35, i64 %37
  %39 = load ptr, ptr %38, align 8
  %40 = ptrtoint ptr %34 to i64
  %41 = ptrtoint ptr %39 to i64
  %42 = sub i64 %40, %41
  %43 = trunc i64 %42 to i32
  store i32 %43, ptr %8, align 4
  %44 = load ptr, ptr %6, align 8
  %45 = getelementptr inbounds nuw i8, ptr %44, i32 1
  store ptr %45, ptr %6, align 8
  br label %46

46:                                               ; preds = %33, %16
  %47 = load ptr, ptr %6, align 8
  %48 = icmp ne ptr %47, null
  br i1 %48, label %49, label %54

49:                                               ; preds = %46
  %50 = load ptr, ptr %6, align 8
  %51 = getelementptr inbounds i8, ptr %50, i64 0
  %52 = load i8, ptr %51, align 1
  %53 = icmp ne i8 %52, 0
  br i1 %53, label %58, label %54

54:                                               ; preds = %49, %46
  %55 = load ptr, ptr @stderr, align 8
  %56 = load ptr, ptr %5, align 8
  %57 = call i32 (ptr, ptr, ...) @fprintf(ptr noundef %55, ptr noundef @.str, ptr noundef %56) #7
  br label %212

58:                                               ; preds = %49
  %59 = load ptr, ptr %5, align 8
  %60 = load i32, ptr %8, align 4
  %61 = icmp sgt i32 %60, 1
  br i1 %61, label %62, label %64

62:                                               ; preds = %58
  %63 = load i32, ptr %8, align 4
  br label %65

64:                                               ; preds = %58
  br label %65

65:                                               ; preds = %64, %62
  %66 = phi i32 [ %63, %62 ], [ 1, %64 ]
  %67 = sext i32 %66 to i64
  %68 = call i32 @xstrncasecmp(ptr noundef %59, ptr noundef @.str.1, i64 noundef %67)
  %69 = icmp ne i32 %68, 0
  br i1 %69, label %82, label %70

70:                                               ; preds = %65
  %71 = getelementptr inbounds nuw %struct.assoc_mgr_info_request_msg_t, ptr %10, i32 0, i32 0
  %72 = load ptr, ptr %71, align 8
  %73 = icmp ne ptr %72, null
  br i1 %73, label %77, label %74

74:                                               ; preds = %70
  %75 = call ptr @list_create(ptr noundef @xfree_ptr)
  %76 = getelementptr inbounds nuw %struct.assoc_mgr_info_request_msg_t, ptr %10, i32 0, i32 0
  store ptr %75, ptr %76, align 8
  br label %77

77:                                               ; preds = %74, %70
  %78 = getelementptr inbounds nuw %struct.assoc_mgr_info_request_msg_t, ptr %10, i32 0, i32 0
  %79 = load ptr, ptr %78, align 8
  %80 = load ptr, ptr %6, align 8
  %81 = call i32 @slurm_addto_char_list(ptr noundef %79, ptr noundef %80)
  br label %186

82:                                               ; preds = %65
  %83 = load ptr, ptr %5, align 8
  %84 = load i32, ptr %8, align 4
  %85 = icmp sgt i32 %84, 1
  br i1 %85, label %86, label %88

86:                                               ; preds = %82
  %87 = load i32, ptr %8, align 4
  br label %89

88:                                               ; preds = %82
  br label %89

89:                                               ; preds = %88, %86
  %90 = phi i32 [ %87, %86 ], [ 1, %88 ]
  %91 = sext i32 %90 to i64
  %92 = call i32 @xstrncasecmp(ptr noundef %83, ptr noundef @.str.2, i64 noundef %91)
  %93 = icmp ne i32 %92, 0
  br i1 %93, label %127, label %94

94:                                               ; preds = %89
  %95 = load ptr, ptr %6, align 8
  %96 = call ptr @xstrcasestr(ptr noundef %95, ptr noundef @.str.3)
  %97 = icmp ne ptr %96, null
  br i1 %97, label %98, label %102

98:                                               ; preds = %94
  %99 = getelementptr inbounds nuw %struct.assoc_mgr_info_request_msg_t, ptr %10, i32 0, i32 1
  %100 = load i32, ptr %99, align 8
  %101 = or i32 %100, 2
  store i32 %101, ptr %99, align 8
  br label %102

102:                                              ; preds = %98, %94
  %103 = load ptr, ptr %6, align 8
  %104 = call ptr @xstrcasestr(ptr noundef %103, ptr noundef @.str.4)
  %105 = icmp ne ptr %104, null
  br i1 %105, label %106, label %110

106:                                              ; preds = %102
  %107 = getelementptr inbounds nuw %struct.assoc_mgr_info_request_msg_t, ptr %10, i32 0, i32 1
  %108 = load i32, ptr %107, align 8
  %109 = or i32 %108, 1
  store i32 %109, ptr %107, align 8
  br label %110

110:                                              ; preds = %106, %102
  %111 = load ptr, ptr %6, align 8
  %112 = call ptr @xstrcasestr(ptr noundef %111, ptr noundef @.str.5)
  %113 = icmp ne ptr %112, null
  br i1 %113, label %114, label %118

114:                                              ; preds = %110
  %115 = getelementptr inbounds nuw %struct.assoc_mgr_info_request_msg_t, ptr %10, i32 0, i32 1
  %116 = load i32, ptr %115, align 8
  %117 = or i32 %116, 4
  store i32 %117, ptr %115, align 8
  br label %118

118:                                              ; preds = %114, %110
  %119 = getelementptr inbounds nuw %struct.assoc_mgr_info_request_msg_t, ptr %10, i32 0, i32 1
  %120 = load i32, ptr %119, align 8
  %121 = icmp ne i32 %120, 0
  br i1 %121, label %126, label %122

122:                                              ; preds = %118
  %123 = load ptr, ptr @stderr, align 8
  %124 = load ptr, ptr %6, align 8
  %125 = call i32 (ptr, ptr, ...) @fprintf(ptr noundef %123, ptr noundef @.str.6, ptr noundef %124) #7
  br label %212

126:                                              ; preds = %118
  br label %185

127:                                              ; preds = %89
  %128 = load ptr, ptr %5, align 8
  %129 = load i32, ptr %8, align 4
  %130 = icmp sgt i32 %129, 1
  br i1 %130, label %131, label %133

131:                                              ; preds = %127
  %132 = load i32, ptr %8, align 4
  br label %134

133:                                              ; preds = %127
  br label %134

134:                                              ; preds = %133, %131
  %135 = phi i32 [ %132, %131 ], [ 1, %133 ]
  %136 = sext i32 %135 to i64
  %137 = call i32 @xstrncasecmp(ptr noundef %128, ptr noundef @.str.5, i64 noundef %136)
  %138 = icmp ne i32 %137, 0
  br i1 %138, label %151, label %139

139:                                              ; preds = %134
  %140 = getelementptr inbounds nuw %struct.assoc_mgr_info_request_msg_t, ptr %10, i32 0, i32 2
  %141 = load ptr, ptr %140, align 8
  %142 = icmp ne ptr %141, null
  br i1 %142, label %146, label %143

143:                                              ; preds = %139
  %144 = call ptr @list_create(ptr noundef @xfree_ptr)
  %145 = getelementptr inbounds nuw %struct.assoc_mgr_info_request_msg_t, ptr %10, i32 0, i32 2
  store ptr %144, ptr %145, align 8
  br label %146

146:                                              ; preds = %143, %139
  %147 = getelementptr inbounds nuw %struct.assoc_mgr_info_request_msg_t, ptr %10, i32 0, i32 2
  %148 = load ptr, ptr %147, align 8
  %149 = load ptr, ptr %6, align 8
  %150 = call i32 @slurm_addto_char_list(ptr noundef %148, ptr noundef %149)
  br label %184

151:                                              ; preds = %134
  %152 = load ptr, ptr %5, align 8
  %153 = load i32, ptr %8, align 4
  %154 = icmp sgt i32 %153, 1
  br i1 %154, label %155, label %157

155:                                              ; preds = %151
  %156 = load i32, ptr %8, align 4
  br label %158

157:                                              ; preds = %151
  br label %158

158:                                              ; preds = %157, %155
  %159 = phi i32 [ %156, %155 ], [ 1, %157 ]
  %160 = sext i32 %159 to i64
  %161 = call i32 @xstrncasecmp(ptr noundef %152, ptr noundef @.str.3, i64 noundef %160)
  %162 = icmp ne i32 %161, 0
  br i1 %162, label %175, label %163

163:                                              ; preds = %158
  %164 = getelementptr inbounds nuw %struct.assoc_mgr_info_request_msg_t, ptr %10, i32 0, i32 3
  %165 = load ptr, ptr %164, align 8
  %166 = icmp ne ptr %165, null
  br i1 %166, label %170, label %167

167:                                              ; preds = %163
  %168 = call ptr @list_create(ptr noundef @xfree_ptr)
  %169 = getelementptr inbounds nuw %struct.assoc_mgr_info_request_msg_t, ptr %10, i32 0, i32 3
  store ptr %168, ptr %169, align 8
  br label %170

170:                                              ; preds = %167, %163
  %171 = getelementptr inbounds nuw %struct.assoc_mgr_info_request_msg_t, ptr %10, i32 0, i32 3
  %172 = load ptr, ptr %171, align 8
  %173 = load ptr, ptr %6, align 8
  %174 = call i32 @slurm_addto_char_list_with_case(ptr noundef %172, ptr noundef %173, i1 noundef zeroext false)
  br label %183

175:                                              ; preds = %158
  store i32 1, ptr @exit_code, align 4
  %176 = load i32, ptr @quiet_flag, align 4
  %177 = icmp ne i32 %176, 1
  br i1 %177, label %178, label %182

178:                                              ; preds = %175
  %179 = load ptr, ptr @stderr, align 8
  %180 = load ptr, ptr %5, align 8
  %181 = call i32 (ptr, ptr, ...) @fprintf(ptr noundef %179, ptr noundef @.str.7, ptr noundef %180) #7
  br label %182

182:                                              ; preds = %178, %175
  br label %212

183:                                              ; preds = %170
  br label %184

184:                                              ; preds = %183, %146
  br label %185

185:                                              ; preds = %184, %126
  br label %186

186:                                              ; preds = %185, %77
  br label %187

187:                                              ; preds = %186
  br label %188

188:                                              ; preds = %187
  %189 = load i32, ptr %9, align 4
  %190 = add nsw i32 %189, 1
  store i32 %190, ptr %9, align 4
  br label %12, !llvm.loop !8

191:                                              ; preds = %12
  %192 = getelementptr inbounds nuw %struct.assoc_mgr_info_request_msg_t, ptr %10, i32 0, i32 1
  %193 = load i32, ptr %192, align 8
  %194 = icmp ne i32 %193, 0
  br i1 %194, label %197, label %195

195:                                              ; preds = %191
  %196 = getelementptr inbounds nuw %struct.assoc_mgr_info_request_msg_t, ptr %10, i32 0, i32 1
  store i32 7, ptr %196, align 8
  br label %197

197:                                              ; preds = %195, %191
  %198 = getelementptr inbounds nuw %struct.assoc_mgr_info_request_msg_t, ptr %10, i32 0, i32 1
  %199 = load i32, ptr %198, align 8
  store i32 %199, ptr @req_flags, align 4
  %200 = call i32 @slurm_load_assoc_mgr_info(ptr noundef %10, ptr noundef %11)
  store i32 %200, ptr %7, align 4
  %201 = load i32, ptr %7, align 4
  %202 = icmp eq i32 %201, 0
  br i1 %202, label %203, label %205

203:                                              ; preds = %197
  %204 = load ptr, ptr %11, align 8
  call void @_print_assoc_mgr_info(ptr noundef %204)
  br label %210

205:                                              ; preds = %197
  store i32 1, ptr @exit_code, align 4
  %206 = load i32, ptr @quiet_flag, align 4
  %207 = icmp ne i32 %206, 1
  br i1 %207, label %208, label %209

208:                                              ; preds = %205
  call void @slurm_perror(ptr noundef @.str.8)
  br label %209

209:                                              ; preds = %208, %205
  br label %210

210:                                              ; preds = %209, %203
  %211 = load ptr, ptr %11, align 8
  call void @slurm_free_assoc_mgr_info_msg(ptr noundef %211)
  br label %212

212:                                              ; preds = %210, %182, %122, %54
  call void @slurm_free_assoc_mgr_info_request_members(ptr noundef %10)
  call void @llvm.lifetime.end.p0(i64 8, ptr %11) #7
  call void @llvm.lifetime.end.p0(i64 32, ptr %10) #7
  call void @llvm.lifetime.end.p0(i64 4, ptr %9) #7
  call void @llvm.lifetime.end.p0(i64 4, ptr %8) #7
  call void @llvm.lifetime.end.p0(i64 4, ptr %7) #7
  call void @llvm.lifetime.end.p0(i64 8, ptr %6) #7
  call void @llvm.lifetime.end.p0(i64 8, ptr %5) #7
  ret void
}