; Function Attrs: nounwind uwtable
define dso_local void @scontrol_print_assoc_mgr_info(i32 noundef %0, ptr noundef readonly captures(none) %1) local_unnamed_addr #0 {
  %3 = alloca %struct.assoc_mgr_info_request_msg_t, align 8
  %4 = alloca ptr, align 8
  call void @llvm.lifetime.start.p0(i64 32, ptr nonnull %3) #9
  call void @llvm.lifetime.start.p0(i64 8, ptr nonnull %4) #9
  store ptr null, ptr %4, align 8
  call void @llvm.memset.p0.i64(ptr noundef nonnull align 8 dereferenceable(32) %3, i8 0, i64 32, i1 false)
  %5 = icmp sgt i32 %0, 0
  br i1 %5, label %.lr.ph, label %._crit_edge.thread

.lr.ph:                                           ; preds = %2
  %6 = getelementptr inbounds nuw i8, ptr %3, i64 24
  %7 = getelementptr inbounds nuw i8, ptr %3, i64 16
  %8 = getelementptr inbounds nuw i8, ptr %3, i64 8
  %wide.trip.count = zext nneg i32 %0 to i64
  br label %9

9:                                                ; preds = %.lr.ph, %77
  %indvars.iv = phi i64 [ 0, %.lr.ph ], [ %indvars.iv.next, %77 ]
  %10 = phi i32 [ 0, %.lr.ph ], [ %78, %77 ]
  %11 = phi ptr [ null, %.lr.ph ], [ %79, %77 ]
  %12 = phi ptr [ null, %.lr.ph ], [ %80, %77 ]
  %13 = phi ptr [ null, %.lr.ph ], [ %81, %77 ]
  %14 = getelementptr inbounds nuw ptr, ptr %1, i64 %indvars.iv
  %15 = load ptr, ptr %14, align 8
  %16 = tail call i64 @strlen(ptr noundef nonnull dereferenceable(1) %15) #10
  %17 = tail call ptr @strchr(ptr noundef nonnull dereferenceable(1) %15, i32 noundef 61) #10
  %.not40 = icmp eq ptr %17, null
  %18 = ptrtoint ptr %17 to i64
  %19 = ptrtoint ptr %15 to i64
  %20 = sub i64 %18, %19
  %21 = getelementptr inbounds nuw i8, ptr %17, i64 1
  %.036.in = select i1 %.not40, i64 %16, i64 %20
  %.036 = trunc i64 %.036.in to i32
  br i1 %.not40, label %24, label %22

22:                                               ; preds = %9
  %23 = load i8, ptr %21, align 1
  %.not42 = icmp eq i8 %23, 0
  br i1 %.not42, label %24, label %27

24:                                               ; preds = %22, %9
  %25 = load ptr, ptr @stderr, align 8
  %26 = tail call i32 (ptr, ptr, ...) @fprintf(ptr noundef %25, ptr noundef nonnull @.str, ptr noundef nonnull %15) #11
  br label %94

27:                                               ; preds = %22
  %28 = tail call i32 @llvm.smax.i32(i32 %.036, i32 1)
  %29 = zext nneg i32 %28 to i64
  %30 = tail call i32 @xstrncasecmp(ptr noundef nonnull %15, ptr noundef nonnull @.str.1, i64 noundef %29) #9
  %.not43 = icmp eq i32 %30, 0
  br i1 %.not43, label %31, label %37

31:                                               ; preds = %27
  %.not44 = icmp eq ptr %13, null
  br i1 %.not44, label %32, label %34

32:                                               ; preds = %31
  %33 = tail call ptr @list_create(ptr noundef nonnull @xfree_ptr) #9
  store ptr %33, ptr %3, align 8
  br label %34

34:                                               ; preds = %32, %31
  %35 = phi ptr [ %33, %32 ], [ %13, %31 ]
  %36 = tail call i32 @slurm_addto_char_list(ptr noundef %35, ptr noundef nonnull %21) #9
  br label %77

37:                                               ; preds = %27
  %38 = tail call i32 @xstrncasecmp(ptr noundef nonnull %15, ptr noundef nonnull @.str.2, i64 noundef %29) #9
  %.not45 = icmp eq i32 %38, 0
  br i1 %.not45, label %39, label %56

39:                                               ; preds = %37
  %40 = tail call ptr @xstrcasestr(ptr noundef nonnull %21, ptr noundef nonnull @.str.3) #9
  %.not46 = icmp eq ptr %40, null
  br i1 %.not46, label %43, label %41

41:                                               ; preds = %39
  %42 = or i32 %10, 2
  store i32 %42, ptr %8, align 8
  br label %43

43:                                               ; preds = %41, %39
  %44 = phi i32 [ %42, %41 ], [ %10, %39 ]
  %45 = tail call ptr @xstrcasestr(ptr noundef nonnull %21, ptr noundef nonnull @.str.4) #9
  %.not47 = icmp eq ptr %45, null
  br i1 %.not47, label %48, label %46

46:                                               ; preds = %43
  %47 = or i32 %44, 1
  store i32 %47, ptr %8, align 8
  br label %48

48:                                               ; preds = %46, %43
  %49 = phi i32 [ %47, %46 ], [ %44, %43 ]
  %50 = tail call ptr @xstrcasestr(ptr noundef nonnull %21, ptr noundef nonnull @.str.5) #9
  %.not48 = icmp eq ptr %50, null
  br i1 %.not48, label %52, label %.thread

.thread:                                          ; preds = %48
  %51 = or i32 %49, 4
  store i32 %51, ptr %8, align 8
  br label %77

52:                                               ; preds = %48
  %.not49 = icmp eq i32 %49, 0
  br i1 %.not49, label %53, label %77

53:                                               ; preds = %52
  %54 = load ptr, ptr @stderr, align 8
  %55 = tail call i32 (ptr, ptr, ...) @fprintf(ptr noundef %54, ptr noundef nonnull @.str.6, ptr noundef nonnull %21) #11
  br label %94

56:                                               ; preds = %37
  %57 = tail call i32 @xstrncasecmp(ptr noundef nonnull %15, ptr noundef nonnull @.str.5, i64 noundef %29) #9
  %.not50 = icmp eq i32 %57, 0
  br i1 %.not50, label %58, label %64

58:                                               ; preds = %56
  %.not51 = icmp eq ptr %11, null
  br i1 %.not51, label %59, label %61

59:                                               ; preds = %58
  %60 = tail call ptr @list_create(ptr noundef nonnull @xfree_ptr) #9
  store ptr %60, ptr %7, align 8
  br label %61

61:                                               ; preds = %59, %58
  %62 = phi ptr [ %60, %59 ], [ %11, %58 ]
  %63 = tail call i32 @slurm_addto_char_list(ptr noundef %62, ptr noundef nonnull %21) #9
  br label %77

64:                                               ; preds = %56
  %65 = tail call i32 @xstrncasecmp(ptr noundef nonnull %15, ptr noundef nonnull @.str.3, i64 noundef %29) #9
  %.not52 = icmp eq i32 %65, 0
  br i1 %.not52, label %66, label %72

66:                                               ; preds = %64
  %.not53 = icmp eq ptr %12, null
  br i1 %.not53, label %67, label %69

67:                                               ; preds = %66
  %68 = tail call ptr @list_create(ptr noundef nonnull @xfree_ptr) #9
  store ptr %68, ptr %6, align 8
  br label %69

69:                                               ; preds = %67, %66
  %70 = phi ptr [ %68, %67 ], [ %12, %66 ]
  %71 = tail call i32 @slurm_addto_char_list_with_case(ptr noundef %70, ptr noundef nonnull %21, i1 noundef zeroext false) #9
  br label %77

72:                                               ; preds = %64
  store i32 1, ptr @exit_code, align 4
  %73 = load i32, ptr @quiet_flag, align 4
  %.not54 = icmp eq i32 %73, 1
  br i1 %.not54, label %94, label %74

74:                                               ; preds = %72
  %75 = load ptr, ptr @stderr, align 8
  %76 = tail call i32 (ptr, ptr, ...) @fprintf(ptr noundef %75, ptr noundef nonnull @.str.7, ptr noundef nonnull %15) #11
  br label %94

77:                                               ; preds = %.thread, %52, %69, %61, %34
  %78 = phi i32 [ %49, %52 ], [ %10, %69 ], [ %10, %61 ], [ %10, %34 ], [ %51, %.thread ]
  %79 = phi ptr [ %11, %52 ], [ %11, %69 ], [ %62, %61 ], [ %11, %34 ], [ %11, %.thread ]
  %80 = phi ptr [ %12, %52 ], [ %70, %69 ], [ %12, %61 ], [ %12, %34 ], [ %12, %.thread ]
  %81 = phi ptr [ %13, %52 ], [ %13, %69 ], [ %13, %61 ], [ %35, %34 ], [ %13, %.thread ]
  %indvars.iv.next = add nuw nsw i64 %indvars.iv, 1
  %exitcond.not = icmp eq i64 %indvars.iv.next, %wide.trip.count
  br i1 %exitcond.not, label %._crit_edge, label %9, !llvm.loop !8

._crit_edge:                                      ; preds = %77
  %.not = icmp eq i32 %78, 0
  br i1 %.not, label %._crit_edge.thread, label %83

._crit_edge.thread:                               ; preds = %2, %._crit_edge
  %82 = getelementptr inbounds nuw i8, ptr %3, i64 8
  store i32 7, ptr %82, align 8
  br label %83

83:                                               ; preds = %._crit_edge.thread, %._crit_edge
  %84 = phi i32 [ 7, %._crit_edge.thread ], [ %78, %._crit_edge ]
  store i32 %84, ptr @req_flags, align 4
  %85 = call i32 @slurm_load_assoc_mgr_info(ptr noundef nonnull %3, ptr noundef nonnull %4) #9
  %86 = icmp eq i32 %85, 0
  br i1 %86, label %87, label %89

87:                                               ; preds = %83
  %88 = load ptr, ptr %4, align 8
  call fastcc void @_print_assoc_mgr_info(ptr noundef %88)
  br label %92

89:                                               ; preds = %83
  store i32 1, ptr @exit_code, align 4
  %90 = load i32, ptr @quiet_flag, align 4
  %.not39 = icmp eq i32 %90, 1
  br i1 %.not39, label %92, label %91

91:                                               ; preds = %89
  call void @slurm_perror(ptr noundef nonnull @.str.8) #9
  br label %92

92:                                               ; preds = %89, %91, %87
  %93 = load ptr, ptr %4, align 8
  call void @slurm_free_assoc_mgr_info_msg(ptr noundef %93) #9
  br label %94

94:                                               ; preds = %72, %74, %92, %53, %24
  call void @slurm_free_assoc_mgr_info_request_members(ptr noundef nonnull %3) #9
  call void @llvm.lifetime.end.p0(i64 8, ptr nonnull %4) #9
  call void @llvm.lifetime.end.p0(i64 32, ptr nonnull %3) #9
  ret void
}